; Function Attrs: nounwind uwtable
define ptr @l_Array_foldlMUnsafe_fold___at_Lean_Elab_Term_elabClear___spec__8(ptr noundef %0, ptr noundef readonly captures(none) %1, i64 noundef %2, i64 noundef %3, ptr noundef %4) local_unnamed_addr #0 {
  %.not48 = icmp eq i64 %2, %3
  br i1 %.not48, label %._crit_edge, label %.lr.ph

.lr.ph:                                           ; preds = %5
  %6 = getelementptr inbounds nuw i8, ptr %1, i64 24
  br label %7

7:                                                ; preds = %.lr.ph, %lean_dec.exit
  %.02550 = phi i64 [ %2, %.lr.ph ], [ %48, %lean_dec.exit ]
  %.02749 = phi ptr [ %4, %.lr.ph ], [ %.229, %lean_dec.exit ]
  %8 = getelementptr inbounds nuw [0 x ptr], ptr %6, i64 0, i64 %.02550
  %9 = load ptr, ptr %8, align 8, !tbaa !4
  %10 = ptrtoint ptr %9 to i64
  %11 = and i64 %10, 1
  %.not.i36 = icmp eq i64 %11, 0
  br i1 %.not.i36, label %12, label %lean_array_uget.exit

12:                                               ; preds = %7
  %.val.i.i = load i32, ptr %9, align 4, !tbaa !8
  %13 = icmp sgt i32 %.val.i.i, 0
  br i1 %13, label %14, label %16, !prof !15

14:                                               ; preds = %12
  %15 = add nuw i32 %.val.i.i, 1
  store i32 %15, ptr %9, align 4, !tbaa !8
  br label %lean_array_uget.exit

16:                                               ; preds = %12
  %.not.i.i = icmp eq i32 %.val.i.i, 0
  br i1 %.not.i.i, label %lean_array_uget.exit, label %17

17:                                               ; preds = %16
  tail call void @lean_inc_ref_cold(ptr noundef nonnull %9) #6
  br label %lean_array_uget.exit

lean_array_uget.exit:                             ; preds = %7, %14, %16, %17
  %18 = getelementptr inbounds nuw i8, ptr %9, i64 16
  %19 = load ptr, ptr %18, align 8, !tbaa !4
  %20 = ptrtoint ptr %19 to i64
  %21 = and i64 %20, 1
  %.not45 = icmp eq i64 %21, 0
  br i1 %.not45, label %22, label %lean_inc.exit

22:                                               ; preds = %lean_array_uget.exit
  %.val.i = load i32, ptr %19, align 4, !tbaa !8
  %23 = icmp sgt i32 %.val.i, 0
  br i1 %23, label %24, label %26, !prof !15

24:                                               ; preds = %22
  %25 = add nuw i32 %.val.i, 1
  store i32 %25, ptr %19, align 4, !tbaa !8
  br label %29

26:                                               ; preds = %22
  %.not.i37 = icmp eq i32 %.val.i, 0
  br i1 %.not.i37, label %29, label %27

27:                                               ; preds = %26
  tail call void @lean_inc_ref_cold(ptr noundef nonnull %19) #6
  br label %29

lean_inc.exit:                                    ; preds = %lean_array_uget.exit
  %28 = tail call ptr @l_Lean_Expr_fvarId_x21(ptr noundef %19) #6
  br label %lean_dec.exit31

29:                                               ; preds = %27, %26, %24
  %30 = tail call ptr @l_Lean_Expr_fvarId_x21(ptr noundef nonnull %19) #6
  %31 = load i32, ptr %19, align 4, !tbaa !8
  %32 = icmp sgt i32 %31, 1
  br i1 %32, label %33, label %35, !prof !15

33:                                               ; preds = %29
  %34 = add nsw i32 %31, -1
  store i32 %34, ptr %19, align 4, !tbaa !8
  br label %lean_dec.exit31

35:                                               ; preds = %29
  %.not.i = icmp eq i32 %31, 0
  br i1 %.not.i, label %lean_dec.exit31, label %36

36:                                               ; preds = %35
  tail call void @lean_dec_ref_cold(ptr noundef nonnull %19) #6
  br label %lean_dec.exit31

lean_dec.exit31:                                  ; preds = %36, %35, %33, %lean_inc.exit
  %37 = phi ptr [ %28, %lean_inc.exit ], [ %30, %33 ], [ %30, %35 ], [ %30, %36 ]
  %38 = tail call zeroext i8 @l_Array_contains___at___private_Lean_Class_0__Lean_checkOutParam___spec__1(ptr noundef %0, ptr noundef %37) #6
  %39 = ptrtoint ptr %37 to i64
  %40 = and i64 %39, 1
  %.not46 = icmp eq i64 %40, 0
  br i1 %.not46, label %41, label %lean_dec.exit30

41:                                               ; preds = %lean_dec.exit31
  %42 = load i32, ptr %37, align 4, !tbaa !8
  %43 = icmp sgt i32 %42, 1
  br i1 %43, label %44, label %46, !prof !15

44:                                               ; preds = %41
  %45 = add nsw i32 %42, -1
  store i32 %45, ptr %37, align 4, !tbaa !8
  br label %lean_dec.exit30

46:                                               ; preds = %41
  %.not.i32 = icmp eq i32 %42, 0
  br i1 %.not.i32, label %lean_dec.exit30, label %47

47:                                               ; preds = %46
  tail call void @lean_dec_ref_cold(ptr noundef nonnull %37) #6
  br label %lean_dec.exit30

lean_dec.exit30:                                  ; preds = %47, %46, %44, %lean_dec.exit31
  %48 = add i64 %.02550, 1
  %49 = icmp eq i8 %38, 0
  br i1 %49, label %50, label %52

50:                                               ; preds = %lean_dec.exit30
  %51 = tail call ptr @lean_array_push(ptr noundef %.02749, ptr noundef nonnull %9) #6
  br label %lean_dec.exit

52:                                               ; preds = %lean_dec.exit30
  br i1 %.not.i36, label %53, label %lean_dec.exit

53:                                               ; preds = %52
  %54 = load i32, ptr %9, align 4, !tbaa !8
  %55 = icmp sgt i32 %54, 1
  br i1 %55, label %56, label %58, !prof !15

56:                                               ; preds = %53
  %57 = add nsw i32 %54, -1
  store i32 %57, ptr %9, align 4, !tbaa !8
  br label %lean_dec.exit

58:                                               ; preds = %53
  %.not.i34 = icmp eq i32 %54, 0
  br i1 %.not.i34, label %lean_dec.exit, label %59

59:                                               ; preds = %58
  tail call void @lean_dec_ref_cold(ptr noundef nonnull %9) #6
  br label %lean_dec.exit

lean_dec.exit:                                    ; preds = %52, %56, %58, %59, %50
  %.229 = phi ptr [ %51, %50 ], [ %.02749, %59 ], [ %.02749, %58 ], [ %.02749, %56 ], [ %.02749, %52 ]
  %.not = icmp eq i64 %48, %3
  br i1 %.not, label %._crit_edge, label %7

._crit_edge:                                      ; preds = %lean_dec.exit, %5
  %.027.lcssa = phi ptr [ %4, %5 ], [ %.229, %lean_dec.exit ]
  ret ptr %.027.lcssa
}